target datalayout = "e-m:e-p270:32:32-p271:32:32-p272:64:64-i64:64-i128:128-f80:128-n8:16:32:64-S128"
target triple = "x86_64-pc-linux-gnu"

%struct.AVRational = type { i32, i32 }
%struct.MOVAtom = type { i32, i64 }
%struct.MOVContext = type { ptr, ptr, i32, i64, i32, i32, i32, i32, i32, i32, ptr, i32, ptr, ptr, i32, %struct.MOVFragment, ptr, i32, i32, i32, ptr, i32, i32, i32, i32, i32, i32, i32, i64, i32, i32, ptr, i32, i32, i32, i32, i32, %struct.MOVFragmentIndex, i32, i32, [20 x i8], [20 x i8], ptr, i32, ptr, i32, ptr, i32, ptr, i32, ptr, ptr, i32, i32, [3 x [3 x i32]], i32, i32, i32, i32, i32, ptr, i32, ptr, i32, i32, i64, i32 }
%struct.MOVFragment = type { i32, i32, i64, i64, i64, i32, i32, i32, i32 }
%struct.MOVFragmentIndex = type { i32, i32, i32, i32, ptr }
%struct.AVFormatContext = type { ptr, ptr, ptr, ptr, ptr, i32, i32, ptr, i32, ptr, i32, ptr, ptr, i64, i64, i64, i32, i32, i32, i64, i64, ptr, i32, i32, ptr, i32, i32, i32, i32, ptr, i64, i32, i32, %struct.AVIOInterruptCB, i32, i32, i32, i32, i64, i32, i32, i32, i32, i32, i32, i32, i32, i32, i32, i32, i32, i64, i32, i32, i32, i32, i32, ptr, ptr, ptr, ptr, i32, ptr, ptr, ptr, ptr, i32, ptr, ptr, i64, ptr, ptr, ptr, i64 }
%struct.AVIOInterruptCB = type { ptr, ptr }
%struct.AVStream = type { ptr, i32, i32, ptr, ptr, %struct.AVRational, i64, i64, i64, i32, i32, %struct.AVRational, ptr, %struct.AVRational, %struct.AVPacket, i32, %struct.AVRational, i32 }
%struct.AVPacket = type { ptr, i64, i64, ptr, i32, i32, i32, ptr, i32, i64, i64, ptr, ptr, %struct.AVRational }
%struct.AVCodecParameters = type { i32, i32, i32, ptr, i32, ptr, i32, i32, i64, i32, i32, i32, i32, i32, i32, %struct.AVRational, %struct.AVRational, i32, i32, i32, i32, i32, i32, i32, %struct.AVChannelLayout, i32, i32, i32, i32, i32, i32 }
%struct.AVChannelLayout = type { i32, i32, %union.anon, ptr }
%union.anon = type { i64 }

@.str.74 = private unnamed_addr constant [9 x i8] c"enda %d\0A\00", align 1

; Function Attrs: nounwind uwtable
define internal void @set_last_stream_little_endian(ptr noundef %0) #0 {
  %2 = alloca ptr, align 8
  %3 = alloca ptr, align 8
  %4 = alloca i32, align 4
  store ptr %0, ptr %2, align 8, !tbaa !158
  call void @llvm.lifetime.start.p0(i64 8, ptr %3) #14
  %5 = load ptr, ptr %2, align 8, !tbaa !158
  %6 = getelementptr inbounds nuw %struct.AVFormatContext, ptr %5, i32 0, i32 6
  %7 = load i32, ptr %6, align 4, !tbaa !30
  %8 = icmp ult i32 %7, 1
  br i1 %8, label %9, label %10

9:                                                ; preds = %1
  store i32 1, ptr %4, align 4
  br label %53

10:                                               ; preds = %1
  %11 = load ptr, ptr %2, align 8, !tbaa !158
  %12 = getelementptr inbounds nuw %struct.AVFormatContext, ptr %11, i32 0, i32 7
  %13 = load ptr, ptr %12, align 8, !tbaa !41
  %14 = load ptr, ptr %2, align 8, !tbaa !158
  %15 = getelementptr inbounds nuw %struct.AVFormatContext, ptr %14, i32 0, i32 6
  %16 = load i32, ptr %15, align 4, !tbaa !30
  %17 = sub i32 %16, 1
  %18 = zext i32 %17 to i64
  %19 = getelementptr inbounds nuw ptr, ptr %13, i64 %18
  %20 = load ptr, ptr %19, align 8, !tbaa !42
  store ptr %20, ptr %3, align 8, !tbaa !42
  %21 = load ptr, ptr %3, align 8, !tbaa !42
  %22 = getelementptr inbounds nuw %struct.AVStream, ptr %21, i32 0, i32 3
  %23 = load ptr, ptr %22, align 8, !tbaa !60
  %24 = getelementptr inbounds nuw %struct.AVCodecParameters, ptr %23, i32 0, i32 1
  %25 = load i32, ptr %24, align 4, !tbaa !90
  switch i32 %25, label %51 [
    i32 65537, label %26
    i32 65549, label %31
    i32 65545, label %36
    i32 65556, label %41
    i32 65558, label %46
  ]

26:                                               ; preds = %10
  %27 = load ptr, ptr %3, align 8, !tbaa !42
  %28 = getelementptr inbounds nuw %struct.AVStream, ptr %27, i32 0, i32 3
  %29 = load ptr, ptr %28, align 8, !tbaa !60
  %30 = getelementptr inbounds nuw %struct.AVCodecParameters, ptr %29, i32 0, i32 1
  store i32 65536, ptr %30, align 4, !tbaa !90
  br label %52

31:                                               ; preds = %10
  %32 = load ptr, ptr %3, align 8, !tbaa !42
  %33 = getelementptr inbounds nuw %struct.AVStream, ptr %32, i32 0, i32 3
  %34 = load ptr, ptr %33, align 8, !tbaa !60
  %35 = getelementptr inbounds nuw %struct.AVCodecParameters, ptr %34, i32 0, i32 1
  store i32 65548, ptr %35, align 4, !tbaa !90
  br label %52

36:                                               ; preds = %10
  %37 = load ptr, ptr %3, align 8, !tbaa !42
  %38 = getelementptr inbounds nuw %struct.AVStream, ptr %37, i32 0, i32 3
  %39 = load ptr, ptr %38, align 8, !tbaa !60
  %40 = getelementptr inbounds nuw %struct.AVCodecParameters, ptr %39, i32 0, i32 1
  store i32 65544, ptr %40, align 4, !tbaa !90
  br label %52

41:                                               ; preds = %10
  %42 = load ptr, ptr %3, align 8, !tbaa !42
  %43 = getelementptr inbounds nuw %struct.AVStream, ptr %42, i32 0, i32 3
  %44 = load ptr, ptr %43, align 8, !tbaa !60
  %45 = getelementptr inbounds nuw %struct.AVCodecParameters, ptr %44, i32 0, i32 1
  store i32 65557, ptr %45, align 4, !tbaa !90
  br label %52

46:                                               ; preds = %10
  %47 = load ptr, ptr %3, align 8, !tbaa !42
  %48 = getelementptr inbounds nuw %struct.AVStream, ptr %47, i32 0, i32 3
  %49 = load ptr, ptr %48, align 8, !tbaa !60
  %50 = getelementptr inbounds nuw %struct.AVCodecParameters, ptr %49, i32 0, i32 1
  store i32 65559, ptr %50, align 4, !tbaa !90
  br label %52

51:                                               ; preds = %10
  br label %52

52:                                               ; preds = %51, %46, %41, %36, %31, %26
  store i32 0, ptr %4, align 4
  br label %53

53:                                               ; preds = %52, %9
  call void @llvm.lifetime.end.p0(i64 8, ptr %3) #14
  %54 = load i32, ptr %4, align 4
  switch i32 %54, label %56 [
    i32 0, label %55
    i32 1, label %55
  ]

55:                                               ; preds = %53, %53
  ret void

56:                                               ; preds = %53
  unreachable
}

; Function Attrs: nounwind uwtable
define internal i32 @mov_read_enda(ptr noundef %0, ptr noundef %1, i32 %2, i64 %3) #0 {
  %5 = alloca %struct.MOVAtom, align 8
  %6 = alloca ptr, align 8
  %7 = alloca ptr, align 8
  %8 = alloca i32, align 4
  %9 = getelementptr inbounds nuw { i32, i64 }, ptr %5, i32 0, i32 0
  store i32 %2, ptr %9, align 8
  %10 = getelementptr inbounds nuw { i32, i64 }, ptr %5, i32 0, i32 1
  store i64 %3, ptr %10, align 8
  store ptr %0, ptr %6, align 8, !tbaa !4
  store ptr %1, ptr %7, align 8, !tbaa !9
  call void @llvm.lifetime.start.p0(i64 4, ptr %8) #14
  %11 = load ptr, ptr %7, align 8, !tbaa !9
  %12 = call i32 @avio_rb16(ptr noundef %11)
  %13 = and i32 %12, 255
  store i32 %13, ptr %8, align 4, !tbaa !11
  %14 = load ptr, ptr %6, align 8, !tbaa !4
  %15 = getelementptr inbounds nuw %struct.MOVContext, ptr %14, i32 0, i32 1
  %16 = load ptr, ptr %15, align 8, !tbaa !13
  %17 = load i32, ptr %8, align 4, !tbaa !11
  call void (ptr, i32, ptr, ...) @av_log(ptr noundef %16, i32 noundef 56, ptr noundef @.str.74, i32 noundef %17)
  %18 = load i32, ptr %8, align 4, !tbaa !11
  %19 = icmp eq i32 %18, 1
  br i1 %19, label %20, label %24

20:                                               ; preds = %4
  %21 = load ptr, ptr %6, align 8, !tbaa !4
  %22 = getelementptr inbounds nuw %struct.MOVContext, ptr %21, i32 0, i32 1
  %23 = load ptr, ptr %22, align 8, !tbaa !13
  call void @set_last_stream_little_endian(ptr noundef %23)
  br label %24

24:                                               ; preds = %20, %4
  call void @llvm.lifetime.end.p0(i64 4, ptr %8) #14
  ret i32 0
}