; Function Attrs: nounwind uwtable
define internal noundef i32 @mov_read_enda(ptr noundef readonly captures(none) %0, ptr noundef %1, i32 %2, i64 %3) #0 {
  %5 = tail call i32 @avio_rb16(ptr noundef %1) #16
  %6 = and i32 %5, 255
  %7 = getelementptr inbounds nuw i8, ptr %0, i64 8
  %8 = load ptr, ptr %7, align 8, !tbaa !4
  tail call void (ptr, i32, ptr, ...) @av_log(ptr noundef %8, i32 noundef 56, ptr noundef nonnull @.str.74, i32 noundef %6) #16
  %9 = icmp eq i32 %6, 1
  br i1 %9, label %10, label %set_last_stream_little_endian.exit

10:                                               ; preds = %4
  %11 = load ptr, ptr %7, align 8, !tbaa !4
  %12 = getelementptr inbounds nuw i8, ptr %11, i64 44
  %13 = load i32, ptr %12, align 4, !tbaa !25
  %14 = icmp eq i32 %13, 0
  br i1 %14, label %set_last_stream_little_endian.exit, label %15

15:                                               ; preds = %10
  %16 = getelementptr inbounds nuw i8, ptr %11, i64 48
  %17 = load ptr, ptr %16, align 8, !tbaa !37
  %18 = add i32 %13, -1
  %19 = zext i32 %18 to i64
  %20 = getelementptr inbounds nuw ptr, ptr %17, i64 %19
  %21 = load ptr, ptr %20, align 8, !tbaa !38
  %22 = getelementptr inbounds nuw i8, ptr %21, i64 16
  %23 = load ptr, ptr %22, align 8, !tbaa !49
  %24 = getelementptr inbounds nuw i8, ptr %23, i64 4
  %25 = load i32, ptr %24, align 4, !tbaa !79
  switch i32 %25, label %set_last_stream_little_endian.exit [
    i32 65537, label %.sink.split.i
    i32 65549, label %26
    i32 65545, label %27
    i32 65556, label %28
    i32 65558, label %29
  ]

26:                                               ; preds = %15
  br label %.sink.split.i

27:                                               ; preds = %15
  br label %.sink.split.i

28:                                               ; preds = %15
  br label %.sink.split.i

29:                                               ; preds = %15
  br label %.sink.split.i

.sink.split.i:                                    ; preds = %29, %28, %27, %26, %15
  %.sink.i = phi i32 [ 65548, %26 ], [ 65544, %27 ], [ 65557, %28 ], [ 65559, %29 ], [ 65536, %15 ]
  store i32 %.sink.i, ptr %24, align 4, !tbaa !79
  br label %set_last_stream_little_endian.exit

set_last_stream_little_endian.exit:               ; preds = %.sink.split.i, %15, %10, %4
  ret i32 0
}